; Function Attrs: mustprogress uwtable
define void @_ZN6Assimp13DefaultLogger7OnDebugEPKc(ptr noundef nonnull align 8 dereferenceable(2104) %this, ptr noundef %message) unnamed_addr #5 align 2 {
entry:
  %msg = alloca [1040 x i8], align 16
  %m_Severity = getelementptr inbounds i8, ptr %this, i64 8
  %0 = load i32, ptr %m_Severity, align 8
  %cmp = icmp slt i32 %0, 1
  br i1 %cmp, label %return, label %if.end

if.end:                                           ; preds = %entry
  %call2 = call i32 (ptr, i64, ptr, ...) @snprintf(ptr noundef nonnull dereferenceable(1) %msg, i64 noundef 1040, ptr noundef nonnull @.str.3, i32 noundef 0, ptr noundef %message) #20
  call void @_ZN6Assimp13DefaultLogger14WriteToStreamsEPKcNS_6Logger13ErrorSeverityE(ptr noundef nonnull align 8 dereferenceable(2104) %this, ptr noundef nonnull %msg, i32 noundef 1)
  br label %return

return:                                           ; preds = %entry, %if.end
  ret void
}